; Function Attrs: mustprogress nofree norecurse nosync nounwind willreturn memory(argmem: readwrite, inaccessiblemem: write) uwtable
define void @_ZN9grpc_core4Rbac9CidrRangeC2EOS1_(ptr noundef nonnull align 8 dereferenceable(36) %0, ptr noundef nonnull align 8 dereferenceable(36) %1) unnamed_addr #8 align 2 personality ptr @__gxx_personality_v0 {
  %3 = getelementptr inbounds nuw i8, ptr %0, i64 16
  store ptr %3, ptr %0, align 8, !tbaa !3
  %4 = load ptr, ptr %1, align 8, !tbaa !9
  %5 = getelementptr inbounds nuw i8, ptr %1, i64 16
  %6 = icmp eq ptr %4, %5
  br i1 %6, label %7, label %_ZNKSt7__cxx1112basic_stringIcSt11char_traitsIcESaIcEE11_M_is_localEv.exit.i

7:                                                ; preds = %2
  %8 = getelementptr inbounds nuw i8, ptr %1, i64 8
  %9 = load i64, ptr %8, align 8, !tbaa !12
  %10 = icmp ult i64 %9, 16
  tail call void @llvm.assume(i1 %10)
  %11 = add nuw nsw i64 %9, 1
  tail call void @llvm.memcpy.p0.p0.i64(ptr noundef nonnull align 8 dereferenceable(1) %3, ptr noundef nonnull align 8 dereferenceable(1) %5, i64 %11, i1 false)
  br label %_ZNSt7__cxx1112basic_stringIcSt11char_traitsIcESaIcEEC2EOS4_.exit

_ZNKSt7__cxx1112basic_stringIcSt11char_traitsIcESaIcEE11_M_is_localEv.exit.i: ; preds = %2
  store ptr %4, ptr %0, align 8, !tbaa !9
  %12 = load i64, ptr %5, align 8, !tbaa !13
  store i64 %12, ptr %3, align 8, !tbaa !13
  br label %_ZNSt7__cxx1112basic_stringIcSt11char_traitsIcESaIcEEC2EOS4_.exit

_ZNSt7__cxx1112basic_stringIcSt11char_traitsIcESaIcEEC2EOS4_.exit: ; preds = %7, %_ZNKSt7__cxx1112basic_stringIcSt11char_traitsIcESaIcEE11_M_is_localEv.exit.i
  %13 = getelementptr inbounds nuw i8, ptr %1, i64 8
  %14 = load i64, ptr %13, align 8, !tbaa !12
  %15 = getelementptr inbounds nuw i8, ptr %0, i64 8
  store i64 %14, ptr %15, align 8, !tbaa !12
  store ptr %5, ptr %1, align 8, !tbaa !9
  store i64 0, ptr %13, align 8, !tbaa !12
  store i8 0, ptr %5, align 8, !tbaa !13
  %16 = getelementptr inbounds nuw i8, ptr %0, i64 32
  %17 = getelementptr inbounds nuw i8, ptr %1, i64 32
  %18 = load i32, ptr %17, align 8, !tbaa !91
  store i32 %18, ptr %16, align 8, !tbaa !91
  ret void
}